target datalayout = "e-m:e-p270:32:32-p271:32:32-p272:64:64-i64:64-i128:128-f80:128-n8:16:32:64-S128"
target triple = "x86_64-pc-linux-gnu"

%struct.decNumber = type { i32, i32, i8, [1 x i16] }

; Function Attrs: nounwind uwtable
define dso_local ptr @decNumberZero(ptr noundef %0) #0 {
  %2 = alloca ptr, align 8
  store ptr %0, ptr %2, align 8, !tbaa !4
  %3 = load ptr, ptr %2, align 8, !tbaa !4
  %4 = getelementptr inbounds nuw %struct.decNumber, ptr %3, i32 0, i32 2
  store i8 0, ptr %4, align 4, !tbaa !10
  %5 = load ptr, ptr %2, align 8, !tbaa !4
  %6 = getelementptr inbounds nuw %struct.decNumber, ptr %5, i32 0, i32 1
  store i32 0, ptr %6, align 4, !tbaa !19
  %7 = load ptr, ptr %2, align 8, !tbaa !4
  %8 = getelementptr inbounds nuw %struct.decNumber, ptr %7, i32 0, i32 0
  store i32 1, ptr %8, align 4, !tbaa !18
  %9 = load ptr, ptr %2, align 8, !tbaa !4
  %10 = getelementptr inbounds nuw %struct.decNumber, ptr %9, i32 0, i32 3
  %11 = getelementptr inbounds [1 x i16], ptr %10, i64 0, i64 0
  store i16 0, ptr %11, align 2, !tbaa !14
  %12 = load ptr, ptr %2, align 8, !tbaa !4
  ret ptr %12
}

; Function Attrs: nounwind uwtable
define dso_local ptr @decNumberSameQuantum(ptr noundef %0, ptr noundef %1, ptr noundef %2) #0 {
  %4 = alloca ptr, align 8
  %5 = alloca ptr, align 8
  %6 = alloca ptr, align 8
  %7 = alloca i16, align 2
  store ptr %0, ptr %4, align 8, !tbaa !4
  store ptr %1, ptr %5, align 8, !tbaa !4
  store ptr %2, ptr %6, align 8, !tbaa !4
  call void @llvm.lifetime.start.p0(i64 2, ptr %7) #7
  store i16 0, ptr %7, align 2, !tbaa !14
  %8 = load ptr, ptr %5, align 8, !tbaa !4
  %9 = getelementptr inbounds nuw %struct.decNumber, ptr %8, i32 0, i32 2
  %10 = load i8, ptr %9, align 4, !tbaa !10
  %11 = zext i8 %10 to i32
  %12 = load ptr, ptr %6, align 8, !tbaa !4
  %13 = getelementptr inbounds nuw %struct.decNumber, ptr %12, i32 0, i32 2
  %14 = load i8, ptr %13, align 4, !tbaa !10
  %15 = zext i8 %14 to i32
  %16 = or i32 %11, %15
  %17 = and i32 %16, 112
  %18 = icmp ne i32 %17, 0
  br i1 %18, label %19, label %51

19:                                               ; preds = %3
  %20 = load ptr, ptr %5, align 8, !tbaa !4
  %21 = getelementptr inbounds nuw %struct.decNumber, ptr %20, i32 0, i32 2
  %22 = load i8, ptr %21, align 4, !tbaa !10
  %23 = zext i8 %22 to i32
  %24 = and i32 %23, 48
  %25 = icmp ne i32 %24, 0
  br i1 %25, label %26, label %34

26:                                               ; preds = %19
  %27 = load ptr, ptr %6, align 8, !tbaa !4
  %28 = getelementptr inbounds nuw %struct.decNumber, ptr %27, i32 0, i32 2
  %29 = load i8, ptr %28, align 4, !tbaa !10
  %30 = zext i8 %29 to i32
  %31 = and i32 %30, 48
  %32 = icmp ne i32 %31, 0
  br i1 %32, label %33, label %34

33:                                               ; preds = %26
  store i16 1, ptr %7, align 2, !tbaa !14
  br label %50

34:                                               ; preds = %26, %19
  %35 = load ptr, ptr %5, align 8, !tbaa !4
  %36 = getelementptr inbounds nuw %struct.decNumber, ptr %35, i32 0, i32 2
  %37 = load i8, ptr %36, align 4, !tbaa !10
  %38 = zext i8 %37 to i32
  %39 = and i32 %38, 64
  %40 = icmp ne i32 %39, 0
  br i1 %40, label %41, label %49

41:                                               ; preds = %34
  %42 = load ptr, ptr %6, align 8, !tbaa !4
  %43 = getelementptr inbounds nuw %struct.decNumber, ptr %42, i32 0, i32 2
  %44 = load i8, ptr %43, align 4, !tbaa !10
  %45 = zext i8 %44 to i32
  %46 = and i32 %45, 64
  %47 = icmp ne i32 %46, 0
  br i1 %47, label %48, label %49

48:                                               ; preds = %41
  store i16 1, ptr %7, align 2, !tbaa !14
  br label %49

49:                                               ; preds = %48, %41, %34
  br label %50

50:                                               ; preds = %49, %33
  br label %61

51:                                               ; preds = %3
  %52 = load ptr, ptr %5, align 8, !tbaa !4
  %53 = getelementptr inbounds nuw %struct.decNumber, ptr %52, i32 0, i32 1
  %54 = load i32, ptr %53, align 4, !tbaa !19
  %55 = load ptr, ptr %6, align 8, !tbaa !4
  %56 = getelementptr inbounds nuw %struct.decNumber, ptr %55, i32 0, i32 1
  %57 = load i32, ptr %56, align 4, !tbaa !19
  %58 = icmp eq i32 %54, %57
  br i1 %58, label %59, label %60

59:                                               ; preds = %51
  store i16 1, ptr %7, align 2, !tbaa !14
  br label %60

60:                                               ; preds = %59, %51
  br label %61

61:                                               ; preds = %60, %50
  %62 = load ptr, ptr %4, align 8, !tbaa !4
  %63 = call ptr @decNumberZero(ptr noundef %62)
  %64 = load i16, ptr %7, align 2, !tbaa !14
  %65 = load ptr, ptr %4, align 8, !tbaa !4
  %66 = getelementptr inbounds nuw %struct.decNumber, ptr %65, i32 0, i32 3
  %67 = getelementptr inbounds [1 x i16], ptr %66, i64 0, i64 0
  store i16 %64, ptr %67, align 2, !tbaa !14
  %68 = load ptr, ptr %4, align 8, !tbaa !4
  call void @llvm.lifetime.end.p0(i64 2, ptr %7) #7
  ret ptr %68
}